; Function Attrs: mustprogress nofree norecurse nosync nounwind willreturn memory(argmem: readwrite) uwtable
define dso_local void @_ZN5clang13BaseUsingDecl13addShadowDeclEPNS_15UsingShadowDeclE(ptr noundef nonnull align 8 captures(none) dereferenceable(56) %0, ptr noundef %1) local_unnamed_addr #4 align 2 {
  %3 = getelementptr inbounds nuw i8, ptr %0, i64 48
  %.0.copyload.i.i.i = load i64, ptr %3, align 8
  %4 = and i64 %.0.copyload.i.i.i, -8
  %.not = icmp eq i64 %4, 0
  br i1 %.not, label %8, label %5

5:                                                ; preds = %2
  %6 = inttoptr i64 %4 to ptr
  %7 = getelementptr inbounds nuw i8, ptr %1, i64 72
  store ptr %6, ptr %7, align 8
  %.0.copyload.i.i.i4.pre = load i64, ptr %3, align 8
  br label %8

8:                                                ; preds = %5, %2
  %.0.copyload.i.i.i4 = phi i64 [ %.0.copyload.i.i.i4.pre, %5 ], [ %.0.copyload.i.i.i, %2 ]
  %9 = ptrtoint ptr %1 to i64
  %10 = and i64 %.0.copyload.i.i.i4, 7
  %11 = or i64 %10, %9
  store i64 %11, ptr %3, align 8
  ret void
}